target datalayout = "e-m:e-p270:32:32-p271:32:32-p272:64:64-i64:64-i128:128-f80:128-n8:16:32:64-S128"
target triple = "x86_64-pc-linux-gnu"

%struct._N_VectorContent_Serial = type { i64, i32, ptr }
%struct._generic_N_Vector = type { ptr, ptr }

; Function Attrs: nounwind uwtable
define void @N_VDiv_Serial(ptr noundef %0, ptr noundef %1, ptr noundef %2) #0 {
  %4 = alloca ptr, align 8
  %5 = alloca ptr, align 8
  %6 = alloca ptr, align 8
  %7 = alloca i64, align 8
  %8 = alloca i64, align 8
  %9 = alloca ptr, align 8
  %10 = alloca ptr, align 8
  %11 = alloca ptr, align 8
  store ptr %0, ptr %4, align 8, !tbaa !7
  store ptr %1, ptr %5, align 8, !tbaa !7
  store ptr %2, ptr %6, align 8, !tbaa !7
  call void @llvm.lifetime.start.p0(i64 8, ptr %7) #6
  call void @llvm.lifetime.start.p0(i64 8, ptr %8) #6
  call void @llvm.lifetime.start.p0(i64 8, ptr %9) #6
  call void @llvm.lifetime.start.p0(i64 8, ptr %10) #6
  call void @llvm.lifetime.start.p0(i64 8, ptr %11) #6
  store ptr null, ptr %11, align 8, !tbaa !49
  store ptr null, ptr %10, align 8, !tbaa !49
  store ptr null, ptr %9, align 8, !tbaa !49
  %12 = load ptr, ptr %4, align 8, !tbaa !7
  %13 = getelementptr inbounds nuw %struct._generic_N_Vector, ptr %12, i32 0, i32 0
  %14 = load ptr, ptr %13, align 8, !tbaa !46
  %15 = getelementptr inbounds nuw %struct._N_VectorContent_Serial, ptr %14, i32 0, i32 0
  %16 = load i64, ptr %15, align 8, !tbaa !40
  store i64 %16, ptr %8, align 8, !tbaa !3
  %17 = load ptr, ptr %4, align 8, !tbaa !7
  %18 = getelementptr inbounds nuw %struct._generic_N_Vector, ptr %17, i32 0, i32 0
  %19 = load ptr, ptr %18, align 8, !tbaa !46
  %20 = getelementptr inbounds nuw %struct._N_VectorContent_Serial, ptr %19, i32 0, i32 2
  %21 = load ptr, ptr %20, align 8, !tbaa !45
  store ptr %21, ptr %9, align 8, !tbaa !49
  %22 = load ptr, ptr %5, align 8, !tbaa !7
  %23 = getelementptr inbounds nuw %struct._generic_N_Vector, ptr %22, i32 0, i32 0
  %24 = load ptr, ptr %23, align 8, !tbaa !46
  %25 = getelementptr inbounds nuw %struct._N_VectorContent_Serial, ptr %24, i32 0, i32 2
  %26 = load ptr, ptr %25, align 8, !tbaa !45
  store ptr %26, ptr %10, align 8, !tbaa !49
  %27 = load ptr, ptr %6, align 8, !tbaa !7
  %28 = getelementptr inbounds nuw %struct._generic_N_Vector, ptr %27, i32 0, i32 0
  %29 = load ptr, ptr %28, align 8, !tbaa !46
  %30 = getelementptr inbounds nuw %struct._N_VectorContent_Serial, ptr %29, i32 0, i32 2
  %31 = load ptr, ptr %30, align 8, !tbaa !45
  store ptr %31, ptr %11, align 8, !tbaa !49
  store i64 0, ptr %7, align 8, !tbaa !3
  br label %32

32:                                               ; preds = %49, %3
  %33 = load i64, ptr %7, align 8, !tbaa !3
  %34 = load i64, ptr %8, align 8, !tbaa !3
  %35 = icmp slt i64 %33, %34
  br i1 %35, label %36, label %52

36:                                               ; preds = %32
  %37 = load ptr, ptr %9, align 8, !tbaa !49
  %38 = load i64, ptr %7, align 8, !tbaa !3
  %39 = getelementptr inbounds double, ptr %37, i64 %38
  %40 = load double, ptr %39, align 8, !tbaa !52
  %41 = load ptr, ptr %10, align 8, !tbaa !49
  %42 = load i64, ptr %7, align 8, !tbaa !3
  %43 = getelementptr inbounds double, ptr %41, i64 %42
  %44 = load double, ptr %43, align 8, !tbaa !52
  %45 = fdiv double %40, %44
  %46 = load ptr, ptr %11, align 8, !tbaa !49
  %47 = load i64, ptr %7, align 8, !tbaa !3
  %48 = getelementptr inbounds double, ptr %46, i64 %47
  store double %45, ptr %48, align 8, !tbaa !52
  br label %49

49:                                               ; preds = %36
  %50 = load i64, ptr %7, align 8, !tbaa !3
  %51 = add nsw i64 %50, 1
  store i64 %51, ptr %7, align 8, !tbaa !3
  br label %32, !llvm.loop !59

52:                                               ; preds = %32
  call void @llvm.lifetime.end.p0(i64 8, ptr %11) #6
  call void @llvm.lifetime.end.p0(i64 8, ptr %10) #6
  call void @llvm.lifetime.end.p0(i64 8, ptr %9) #6
  call void @llvm.lifetime.end.p0(i64 8, ptr %8) #6
  call void @llvm.lifetime.end.p0(i64 8, ptr %7) #6
  ret void
}